; Function Attrs: mustprogress nofree norecurse nosync nounwind willreturn memory(argmem: write) uwtable
define hidden void @_ZN10expr_deltaC2ER11ast_manager(ptr nocapture noundef nonnull writeonly align 8 dereferenceable(24) %this, ptr noundef nonnull align 8 dereferenceable(976) %m) unnamed_addr #3 align 2 {
entry:
  store ptr %m, ptr %this, align 8
  %m_exprs = getelementptr inbounds i8, ptr %this, i64 8
  %0 = ptrtoint ptr %m to i64
  store i64 %0, ptr %m_exprs, align 8
  %m_nodes.i.i = getelementptr inbounds i8, ptr %this, i64 16
  store ptr null, ptr %m_nodes.i.i, align 8
  ret void
}